target datalayout = "e-m:e-p270:32:32-p271:32:32-p272:64:64-i64:64-i128:128-f80:128-n8:16:32:64-S128"
target triple = "x86_64-pc-linux-gnu"

%struct.nstime_t = type { i64, i32 }
%struct.tcpcl_frame_loc_t = type { i32, i32, i32 }
%struct.tcpcl_seg_meta = type { %struct.tcpcl_frame_loc_t, %struct.nstime_t, i8, i64, ptr, ptr }

; Function Attrs: nounwind null_pointer_is_valid sspstrong uwtable
define internal i32 @tcpcl_frame_loc_compare(ptr noundef %0, ptr noundef %1, ptr noundef %2) #5 {
  %4 = alloca i32, align 4
  %5 = alloca ptr, align 8
  %6 = alloca ptr, align 8
  %7 = alloca ptr, align 8
  %8 = alloca ptr, align 8
  %9 = alloca ptr, align 8
  %10 = alloca i32, align 4
  store ptr %0, ptr %5, align 8
  store ptr %1, ptr %6, align 8
  store ptr %2, ptr %7, align 8
  call void @llvm.lifetime.start.p0(i64 8, ptr %8) #11
  %11 = load ptr, ptr %5, align 8
  store ptr %11, ptr %8, align 8
  call void @llvm.lifetime.start.p0(i64 8, ptr %9) #11
  %12 = load ptr, ptr %6, align 8
  store ptr %12, ptr %9, align 8
  %13 = load ptr, ptr %8, align 8
  %14 = getelementptr inbounds nuw %struct.tcpcl_frame_loc_t, ptr %13, i32 0, i32 0
  %15 = load i32, ptr %14, align 4
  %16 = load ptr, ptr %9, align 8
  %17 = getelementptr inbounds nuw %struct.tcpcl_frame_loc_t, ptr %16, i32 0, i32 0
  %18 = load i32, ptr %17, align 4
  %19 = icmp ult i32 %15, %18
  br i1 %19, label %20, label %21

20:                                               ; preds = %3
  store i32 -1, ptr %4, align 4
  store i32 1, ptr %10, align 4
  br label %51

21:                                               ; preds = %3
  %22 = load ptr, ptr %8, align 8
  %23 = getelementptr inbounds nuw %struct.tcpcl_frame_loc_t, ptr %22, i32 0, i32 0
  %24 = load i32, ptr %23, align 4
  %25 = load ptr, ptr %9, align 8
  %26 = getelementptr inbounds nuw %struct.tcpcl_frame_loc_t, ptr %25, i32 0, i32 0
  %27 = load i32, ptr %26, align 4
  %28 = icmp ugt i32 %24, %27
  br i1 %28, label %29, label %30

29:                                               ; preds = %21
  store i32 1, ptr %4, align 4
  store i32 1, ptr %10, align 4
  br label %51

30:                                               ; preds = %21
  br label %31

31:                                               ; preds = %30
  %32 = load ptr, ptr %8, align 8
  %33 = getelementptr inbounds nuw %struct.tcpcl_frame_loc_t, ptr %32, i32 0, i32 2
  %34 = load i32, ptr %33, align 4
  %35 = load ptr, ptr %9, align 8
  %36 = getelementptr inbounds nuw %struct.tcpcl_frame_loc_t, ptr %35, i32 0, i32 2
  %37 = load i32, ptr %36, align 4
  %38 = icmp slt i32 %34, %37
  br i1 %38, label %39, label %40

39:                                               ; preds = %31
  store i32 -1, ptr %4, align 4
  store i32 1, ptr %10, align 4
  br label %51

40:                                               ; preds = %31
  %41 = load ptr, ptr %8, align 8
  %42 = getelementptr inbounds nuw %struct.tcpcl_frame_loc_t, ptr %41, i32 0, i32 2
  %43 = load i32, ptr %42, align 4
  %44 = load ptr, ptr %9, align 8
  %45 = getelementptr inbounds nuw %struct.tcpcl_frame_loc_t, ptr %44, i32 0, i32 2
  %46 = load i32, ptr %45, align 4
  %47 = icmp sgt i32 %43, %46
  br i1 %47, label %48, label %49

48:                                               ; preds = %40
  store i32 1, ptr %4, align 4
  store i32 1, ptr %10, align 4
  br label %51

49:                                               ; preds = %40
  br label %50

50:                                               ; preds = %49
  store i32 0, ptr %4, align 4
  store i32 1, ptr %10, align 4
  br label %51

51:                                               ; preds = %50, %48, %39, %29, %20
  call void @llvm.lifetime.end.p0(i64 8, ptr %9) #11
  call void @llvm.lifetime.end.p0(i64 8, ptr %8) #11
  %52 = load i32, ptr %4, align 4
  ret i32 %52
}

; Function Attrs: null_pointer_is_valid sspstrong uwtable
define internal i32 @tcpcl_seg_meta_compare_loc(ptr noundef %0, ptr noundef %1) #0 {
  %3 = alloca ptr, align 8
  %4 = alloca ptr, align 8
  store ptr %0, ptr %3, align 8
  store ptr %1, ptr %4, align 8
  %5 = load ptr, ptr %3, align 8
  %6 = getelementptr inbounds nuw %struct.tcpcl_seg_meta, ptr %5, i32 0, i32 0
  %7 = load ptr, ptr %4, align 8
  %8 = getelementptr inbounds nuw %struct.tcpcl_seg_meta, ptr %7, i32 0, i32 0
  %9 = call i32 @tcpcl_frame_loc_compare(ptr noundef %6, ptr noundef %8, ptr noundef null)
  ret i32 %9
}