; Function Attrs: mustprogress nofree norecurse nosync nounwind null_pointer_is_valid sspstrong willreturn memory(argmem: read) uwtable
define internal range(i32 -1, 2) i32 @tcpcl_seg_meta_compare_loc(ptr noundef readonly captures(none) %0, ptr noundef readonly captures(none) %1) #4 {
  %3 = load i32, ptr %0, align 4
  %4 = load i32, ptr %1, align 4
  %5 = icmp ult i32 %3, %4
  br i1 %5, label %tcpcl_frame_loc_compare.exit, label %6

6:                                                ; preds = %2
  %7 = icmp ugt i32 %3, %4
  br i1 %7, label %tcpcl_frame_loc_compare.exit, label %8

8:                                                ; preds = %6
  %9 = getelementptr inbounds nuw i8, ptr %0, i64 8
  %10 = load i32, ptr %9, align 4
  %11 = getelementptr inbounds nuw i8, ptr %1, i64 8
  %12 = load i32, ptr %11, align 4
  %13 = icmp slt i32 %10, %12
  br i1 %13, label %tcpcl_frame_loc_compare.exit, label %14

14:                                               ; preds = %8
  %15 = icmp sgt i32 %10, %12
  %..i = zext i1 %15 to i32
  br label %tcpcl_frame_loc_compare.exit

tcpcl_frame_loc_compare.exit:                     ; preds = %2, %6, %8, %14
  %.0.i = phi i32 [ -1, %2 ], [ 1, %6 ], [ -1, %8 ], [ %..i, %14 ]
  ret i32 %.0.i
}